target datalayout = "e-m:e-p270:32:32-p271:32:32-p272:64:64-i64:64-i128:128-f80:128-n8:16:32:64-S128"
target triple = "x86_64-pc-linux-gnu"

%class.cmParseCoberturaCoverage = type { i8, i8, %"class.std::vector", ptr, ptr, %"class.std::__cxx11::basic_string" }
%"class.std::vector" = type { %"struct.std::_Vector_base" }
%"struct.std::_Vector_base" = type { %"struct.std::_Vector_base<std::__cxx11::basic_string<char>, std::allocator<std::__cxx11::basic_string<char>>>::_Vector_impl" }
%"struct.std::_Vector_base<std::__cxx11::basic_string<char>, std::allocator<std::__cxx11::basic_string<char>>>::_Vector_impl" = type { %"struct.std::_Vector_base<std::__cxx11::basic_string<char>, std::allocator<std::__cxx11::basic_string<char>>>::_Vector_impl_data" }
%"struct.std::_Vector_base<std::__cxx11::basic_string<char>, std::allocator<std::__cxx11::basic_string<char>>>::_Vector_impl_data" = type { ptr, ptr, ptr }
%"class.std::__cxx11::basic_string" = type { %"struct.std::__cxx11::basic_string<char>::_Alloc_hider", i64, %union.anon }
%"struct.std::__cxx11::basic_string<char>::_Alloc_hider" = type { ptr }
%union.anon = type { i64, [8 x i8] }
%"class.cmParseCoberturaCoverage::XMLParser" = type { %class.cmXMLParser, i8, i8, i8, %"class.std::vector", ptr, ptr, %"class.std::__cxx11::basic_string" }
%class.cmXMLParser = type { ptr, i32, ptr, ptr, ptr }

; Function Attrs: mustprogress uwtable
define dso_local noundef zeroext i1 @_ZN24cmParseCoberturaCoverage15ReadCoverageXMLEPKc(ptr noundef nonnull align 8 dereferenceable(80) %0, ptr noundef %1) #5 align 2 personality ptr @__gxx_personality_v0 {
  %3 = alloca ptr, align 8
  %4 = alloca ptr, align 8
  %5 = alloca %"class.cmParseCoberturaCoverage::XMLParser", align 8
  %6 = alloca ptr, align 8
  %7 = alloca i32, align 4
  store ptr %0, ptr %3, align 8
  store ptr %1, ptr %4, align 8
  %8 = load ptr, ptr %3, align 8
  %9 = getelementptr inbounds %class.cmParseCoberturaCoverage, ptr %8, i32 0, i32 4
  %10 = load ptr, ptr %9, align 8
  %11 = getelementptr inbounds %class.cmParseCoberturaCoverage, ptr %8, i32 0, i32 3
  %12 = load ptr, ptr %11, align 8
  call void @_ZN24cmParseCoberturaCoverage9XMLParserC2EP7cmCTestR31cmCTestCoverageHandlerContainer(ptr noundef nonnull align 8 dereferenceable(120) %5, ptr noundef %10, ptr noundef nonnull align 8 dereferenceable(129) %12)
  %13 = load ptr, ptr %4, align 8
  %14 = invoke noundef i32 @_ZN11cmXMLParser9ParseFileEPKc(ptr noundef nonnull align 8 dereferenceable(40) %5, ptr noundef %13)
          to label %15 unwind label %16

15:                                               ; preds = %2
  call void @_ZN24cmParseCoberturaCoverage9XMLParserD2Ev(ptr noundef nonnull align 8 dereferenceable(120) %5) #3
  ret i1 true

16:                                               ; preds = %2
  %17 = landingpad { ptr, i32 }
          cleanup
  %18 = extractvalue { ptr, i32 } %17, 0
  store ptr %18, ptr %6, align 8
  %19 = extractvalue { ptr, i32 } %17, 1
  store i32 %19, ptr %7, align 4
  call void @_ZN24cmParseCoberturaCoverage9XMLParserD2Ev(ptr noundef nonnull align 8 dereferenceable(120) %5) #3
  br label %20

20:                                               ; preds = %16
  %21 = load ptr, ptr %6, align 8
  %22 = load i32, ptr %7, align 4
  %23 = insertvalue { ptr, i32 } poison, ptr %21, 0
  %24 = insertvalue { ptr, i32 } %23, i32 %22, 1
  resume { ptr, i32 } %24
}