; Function Attrs: mustprogress uwtable
define dso_local noundef zeroext i1 @_ZN24cmParseCoberturaCoverage15ReadCoverageXMLEPKc(ptr nocapture noundef nonnull readonly align 8 dereferenceable(80) %0, ptr noundef %1) local_unnamed_addr #4 align 2 personality ptr @__gxx_personality_v0 {
  %3 = alloca %"class.cmParseCoberturaCoverage::XMLParser", align 8
  %4 = getelementptr inbounds i8, ptr %0, i64 40
  %5 = load ptr, ptr %4, align 8
  %6 = getelementptr inbounds i8, ptr %0, i64 32
  %7 = load ptr, ptr %6, align 8
  call void @_ZN24cmParseCoberturaCoverage9XMLParserC2EP7cmCTestR31cmCTestCoverageHandlerContainer(ptr noundef nonnull align 8 dereferenceable(120) %3, ptr noundef %5, ptr noundef nonnull align 8 dereferenceable(129) %7)
  %8 = invoke noundef i32 @_ZN11cmXMLParser9ParseFileEPKc(ptr noundef nonnull align 8 dereferenceable(40) %3, ptr noundef %1)
          to label %9 unwind label %18

9:                                                ; preds = %2
  store ptr getelementptr inbounds ({ [16 x ptr] }, ptr @_ZTVN24cmParseCoberturaCoverage9XMLParserE, i64 0, i32 0, i64 2), ptr %3, align 8
  %10 = getelementptr inbounds i8, ptr %3, i64 88
  call void @_ZNSt7__cxx1112basic_stringIcSt11char_traitsIcESaIcEED1Ev(ptr noundef nonnull align 8 dereferenceable(32) %10) #17
  %11 = getelementptr inbounds i8, ptr %3, i64 48
  %12 = load ptr, ptr %11, align 8
  %13 = getelementptr inbounds i8, ptr %3, i64 56
  %14 = load ptr, ptr %13, align 8
  %.not4.i.i.i.i.i = icmp eq ptr %12, %14
  br i1 %.not4.i.i.i.i.i, label %_ZSt8_DestroyIPNSt7__cxx1112basic_stringIcSt11char_traitsIcESaIcEEES5_EvT_S7_RSaIT0_E.exit.i.i, label %.lr.ph.i.i.i.i.i

.lr.ph.i.i.i.i.i:                                 ; preds = %9, %.lr.ph.i.i.i.i.i
  %.05.i.i.i.i.i = phi ptr [ %15, %.lr.ph.i.i.i.i.i ], [ %12, %9 ]
  call void @_ZNSt7__cxx1112basic_stringIcSt11char_traitsIcESaIcEED1Ev(ptr noundef nonnull align 8 dereferenceable(32) %.05.i.i.i.i.i) #17
  %15 = getelementptr inbounds i8, ptr %.05.i.i.i.i.i, i64 32
  %.not.i.i.i.i.i = icmp eq ptr %15, %14
  br i1 %.not.i.i.i.i.i, label %_ZSt8_DestroyIPNSt7__cxx1112basic_stringIcSt11char_traitsIcESaIcEEES5_EvT_S7_RSaIT0_E.exitthread-pre-split.i.i, label %.lr.ph.i.i.i.i.i, !llvm.loop !5

_ZSt8_DestroyIPNSt7__cxx1112basic_stringIcSt11char_traitsIcESaIcEEES5_EvT_S7_RSaIT0_E.exitthread-pre-split.i.i: ; preds = %.lr.ph.i.i.i.i.i
  %.pr.i.i = load ptr, ptr %11, align 8
  br label %_ZSt8_DestroyIPNSt7__cxx1112basic_stringIcSt11char_traitsIcESaIcEEES5_EvT_S7_RSaIT0_E.exit.i.i

_ZSt8_DestroyIPNSt7__cxx1112basic_stringIcSt11char_traitsIcESaIcEEES5_EvT_S7_RSaIT0_E.exit.i.i: ; preds = %_ZSt8_DestroyIPNSt7__cxx1112basic_stringIcSt11char_traitsIcESaIcEEES5_EvT_S7_RSaIT0_E.exitthread-pre-split.i.i, %9
  %16 = phi ptr [ %.pr.i.i, %_ZSt8_DestroyIPNSt7__cxx1112basic_stringIcSt11char_traitsIcESaIcEEES5_EvT_S7_RSaIT0_E.exitthread-pre-split.i.i ], [ %12, %9 ]
  %.not.i.i.i.i = icmp eq ptr %16, null
  br i1 %.not.i.i.i.i, label %_ZN24cmParseCoberturaCoverage9XMLParserD2Ev.exit, label %17

17:                                               ; preds = %_ZSt8_DestroyIPNSt7__cxx1112basic_stringIcSt11char_traitsIcESaIcEEES5_EvT_S7_RSaIT0_E.exit.i.i
  call void @_ZdlPv(ptr noundef nonnull %16) #18
  br label %_ZN24cmParseCoberturaCoverage9XMLParserD2Ev.exit

_ZN24cmParseCoberturaCoverage9XMLParserD2Ev.exit: ; preds = %_ZSt8_DestroyIPNSt7__cxx1112basic_stringIcSt11char_traitsIcESaIcEEES5_EvT_S7_RSaIT0_E.exit.i.i, %17
  call void @_ZN11cmXMLParserD2Ev(ptr noundef nonnull align 8 dereferenceable(40) %3) #17
  ret i1 true

18:                                               ; preds = %2
  %19 = landingpad { ptr, i32 }
          cleanup
  call void @_ZN24cmParseCoberturaCoverage9XMLParserD2Ev(ptr noundef nonnull align 8 dereferenceable(120) %3) #17
  resume { ptr, i32 } %19
}